; Function Attrs: mustprogress uwtable
define dso_local void @_Z10appendByteRNSt7__cxx1112basic_stringIcSt11char_traitsIcESaIcEEEh(ptr noundef nonnull align 8 dereferenceable(32) %0, i8 noundef zeroext %1) local_unnamed_addr #9 personality ptr @__gxx_personality_v0 {
  %3 = alloca [5 x i8], align 1
  call void @llvm.lifetime.start.p0(i64 5, ptr nonnull %3) #21
  %4 = zext i8 %1 to i32
  %5 = call i32 (ptr, i64, ptr, ...) @snprintf(ptr noundef nonnull dereferenceable(1) %3, i64 noundef 5, ptr noundef nonnull @.str.4, i32 noundef %4) #21
  %6 = call noundef i64 @strlen(ptr noundef nonnull dereferenceable(1) %3) #21
  %7 = getelementptr inbounds nuw i8, ptr %0, i64 8
  %8 = load i64, ptr %7, align 8, !tbaa !17
  %9 = sub i64 4611686018427387903, %8
  %10 = icmp ult i64 %9, %6
  br i1 %10, label %11, label %_ZNSt7__cxx1112basic_stringIcSt11char_traitsIcESaIcEEpLEPKc.exit

11:                                               ; preds = %2
  tail call void @_ZSt20__throw_length_errorPKc(ptr noundef nonnull @.str.26) #24
  unreachable

_ZNSt7__cxx1112basic_stringIcSt11char_traitsIcESaIcEEpLEPKc.exit: ; preds = %2
  %12 = call noundef nonnull align 8 dereferenceable(32) ptr @_ZNSt7__cxx1112basic_stringIcSt11char_traitsIcESaIcEE9_M_appendEPKcm(ptr noundef nonnull align 8 dereferenceable(32) %0, ptr noundef nonnull %3, i64 noundef %6)
  call void @llvm.lifetime.end.p0(i64 5, ptr nonnull %3) #21
  ret void
}